; Function Attrs: mustprogress uwtable
define noundef i32 @_ZNK7openvdb5v11_02io19DelayedLoadMetadata4sizeEv(ptr nocapture noundef nonnull readonly align 8 dereferenceable(56) %this) unnamed_addr #3 align 2 {
entry:
  %mMask = getelementptr inbounds i8, ptr %this, i64 8
  %0 = load ptr, ptr %mMask, align 8
  %_M_finish.i.i = getelementptr inbounds i8, ptr %this, i64 16
  %1 = load ptr, ptr %_M_finish.i.i, align 8
  %cmp.i.i = icmp eq ptr %0, %1
  br i1 %cmp.i.i, label %land.lhs.true, label %if.end

land.lhs.true:                                    ; preds = %entry
  %mCompressedSize = getelementptr inbounds i8, ptr %this, i64 32
  %2 = load ptr, ptr %mCompressedSize, align 8
  %_M_finish.i.i9 = getelementptr inbounds i8, ptr %this, i64 40
  %3 = load ptr, ptr %_M_finish.i.i9, align 8
  %cmp.i.i10 = icmp eq ptr %2, %3
  br i1 %cmp.i.i10, label %return, label %if.end

if.end:                                           ; preds = %land.lhs.true, %entry
  %sub.ptr.lhs.cast.i = ptrtoint ptr %1 to i64
  %sub.ptr.rhs.cast.i = ptrtoint ptr %0 to i64
  %sub.ptr.sub.i = sub i64 %sub.ptr.lhs.cast.i, %sub.ptr.rhs.cast.i
  %call7 = tail call noundef i64 @_ZN7openvdb5v11_011compression19bloscCompressedSizeEPKcm(ptr noundef %0, i64 noundef %sub.ptr.sub.i)
  %cmp.not = icmp eq i64 %call7, 0
  %4 = load ptr, ptr %_M_finish.i.i, align 8
  %5 = load ptr, ptr %mMask, align 8
  %sub.ptr.lhs.cast.i12 = ptrtoint ptr %4 to i64
  %sub.ptr.rhs.cast.i13 = ptrtoint ptr %5 to i64
  %sub.ptr.sub.i14 = sub i64 %sub.ptr.lhs.cast.i12, %sub.ptr.rhs.cast.i13
  %size.0.in = select i1 %cmp.not, i64 %sub.ptr.sub.i14, i64 %call7
  %add15 = add i64 %size.0.in, 12
  %mCompressedSize16 = getelementptr inbounds i8, ptr %this, i64 32
  %6 = load ptr, ptr %mCompressedSize16, align 8
  %_M_finish.i.i15 = getelementptr inbounds i8, ptr %this, i64 40
  %7 = load ptr, ptr %_M_finish.i.i15, align 8
  %cmp.i.i16 = icmp eq ptr %6, %7
  br i1 %cmp.i.i16, label %if.end35, label %if.then18

if.then18:                                        ; preds = %if.end
  %sub.ptr.lhs.cast.i18 = ptrtoint ptr %7 to i64
  %sub.ptr.rhs.cast.i19 = ptrtoint ptr %6 to i64
  %sub.ptr.sub.i20 = sub i64 %sub.ptr.lhs.cast.i18, %sub.ptr.rhs.cast.i19
  %call25 = tail call noundef i64 @_ZN7openvdb5v11_011compression19bloscCompressedSizeEPKcm(ptr noundef %6, i64 noundef %sub.ptr.sub.i20)
  %cmp26.not = icmp eq i64 %call25, 0
  br i1 %cmp26.not, label %if.else29, label %if.then27

if.then27:                                        ; preds = %if.then18
  %add28 = add i64 %call25, %add15
  br label %if.end35

if.else29:                                        ; preds = %if.then18
  %8 = load ptr, ptr %_M_finish.i.i15, align 8
  %9 = load ptr, ptr %mCompressedSize16, align 8
  %sub.ptr.lhs.cast.i22 = ptrtoint ptr %8 to i64
  %sub.ptr.rhs.cast.i23 = ptrtoint ptr %9 to i64
  %sub.ptr.sub.i24 = add i64 %add15, %sub.ptr.lhs.cast.i22
  %add33 = sub i64 %sub.ptr.sub.i24, %sub.ptr.rhs.cast.i23
  br label %if.end35

if.end35:                                         ; preds = %if.then27, %if.else29, %if.end
  %size.1 = phi i64 [ %add15, %if.end ], [ %add28, %if.then27 ], [ %add33, %if.else29 ]
  %conv = trunc i64 %size.1 to i32
  br label %return

return:                                           ; preds = %land.lhs.true, %if.end35
  %retval.0 = phi i32 [ %conv, %if.end35 ], [ 0, %land.lhs.true ]
  ret i32 %retval.0
}